; Function Attrs: mustprogress null_pointer_is_valid sspstrong uwtable
define internal void @"_ZN9QtPrivate18QFunctorSlotObjectIZN19WiresharkMainWindow22connectEditMenuActionsEvE4$_17Li0ENS_4ListIJEEEvE4implEiPNS_15QSlotObjectBaseEP7QObjectPPvPb"(i32 noundef %0, ptr noundef %1, ptr readnone captures(none) %2, ptr readnone captures(none) %3, ptr readnone captures(none) %4) #0 align 2 {
  switch i32 %0, label %"_ZN9QtPrivate7FunctorIZN19WiresharkMainWindow22connectEditMenuActionsEvE4$_17Li0EE4callINS_4ListIJEEEvEEvRS2_PvPS8_.exit" [
    i32 0, label %6
    i32 1, label %9
  ]

6:                                                ; preds = %5
  %7 = icmp eq ptr %1, null
  br i1 %7, label %"_ZN9QtPrivate7FunctorIZN19WiresharkMainWindow22connectEditMenuActionsEvE4$_17Li0EE4callINS_4ListIJEEEvEEvRS2_PvPS8_.exit", label %8

8:                                                ; preds = %6
  tail call void @_ZdlPvm(ptr noundef nonnull %1, i64 noundef 24) #26
  br label %"_ZN9QtPrivate7FunctorIZN19WiresharkMainWindow22connectEditMenuActionsEvE4$_17Li0EE4callINS_4ListIJEEEvEEvRS2_PvPS8_.exit"

9:                                                ; preds = %5
  %10 = getelementptr inbounds nuw i8, ptr %1, i64 16
  %.val = load ptr, ptr %10, align 8
  %11 = getelementptr inbounds nuw i8, ptr %.val, i64 40
  %12 = tail call noundef zeroext i1 @_ZNK11CaptureFile7isValidEv(ptr noundef nonnull align 8 dereferenceable_or_null(48) %11)
  br i1 %12, label %_ZNK11CaptureFile7capFileEv.exit.i.i.i, label %"_ZN9QtPrivate7FunctorIZN19WiresharkMainWindow22connectEditMenuActionsEvE4$_17Li0EE4callINS_4ListIJEEEvEEvRS2_PvPS8_.exit"

_ZNK11CaptureFile7capFileEv.exit.i.i.i:           ; preds = %9
  %13 = getelementptr inbounds nuw i8, ptr %.val, i64 56
  %14 = load ptr, ptr %13, align 8
  %.not.i.i.i = icmp eq ptr %14, null
  br i1 %.not.i.i.i, label %"_ZN9QtPrivate7FunctorIZN19WiresharkMainWindow22connectEditMenuActionsEvE4$_17Li0EE4callINS_4ListIJEEEvEEvRS2_PvPS8_.exit", label %15

15:                                               ; preds = %_ZNK11CaptureFile7capFileEv.exit.i.i.i
  %16 = tail call noundef zeroext i1 @_ZNK11CaptureFile7isValidEv(ptr noundef nonnull align 8 dereferenceable_or_null(48) %11)
  br i1 %16, label %17, label %_ZNK11CaptureFile7capFileEv.exit1.i.i.i

17:                                               ; preds = %15
  %18 = load ptr, ptr %13, align 8
  br label %_ZNK11CaptureFile7capFileEv.exit1.i.i.i

_ZNK11CaptureFile7capFileEv.exit1.i.i.i:          ; preds = %17, %15
  %19 = phi ptr [ %18, %17 ], [ null, %15 ]
  %20 = tail call zeroext i1 @cf_find_packet_marked(ptr noundef %19, i32 noundef 1)
  br label %"_ZN9QtPrivate7FunctorIZN19WiresharkMainWindow22connectEditMenuActionsEvE4$_17Li0EE4callINS_4ListIJEEEvEEvRS2_PvPS8_.exit"

"_ZN9QtPrivate7FunctorIZN19WiresharkMainWindow22connectEditMenuActionsEvE4$_17Li0EE4callINS_4ListIJEEEvEEvRS2_PvPS8_.exit": ; preds = %_ZNK11CaptureFile7capFileEv.exit1.i.i.i, %_ZNK11CaptureFile7capFileEv.exit.i.i.i, %9, %6, %8, %5
  ret void
}